target datalayout = "e-m:e-p270:32:32-p271:32:32-p272:64:64-i64:64-i128:128-f80:128-n8:16:32:64-S128"
target triple = "x86_64-pc-linux-gnu"

%struct.Qureg = type { i32, i32, i32, i64, i64, i32, i32, %struct.ComplexArray, %struct.ComplexArray, %struct.ComplexArray, ptr, ptr, ptr, ptr, ptr, ptr }
%struct.ComplexArray = type { ptr, ptr }

@__func__.applyProjector = private unnamed_addr constant [15 x i8] c"applyProjector\00", align 1
@.str.14 = private unnamed_addr constant [59 x i8] c"Here, qubit %d was un-physically projected into outcome %d\00", align 1

; Function Attrs: nounwind uwtable
define void @applyProjector(ptr noundef byval(%struct.Qureg) align 8 %0, i32 noundef %1, i32 noundef %2) #0 {
  %4 = alloca i32, align 4
  %5 = alloca i32, align 4
  %6 = alloca double, align 8
  store i32 %1, ptr %4, align 4, !tbaa !4
  store i32 %2, ptr %5, align 4, !tbaa !4
  %7 = load i32, ptr %4, align 4, !tbaa !4
  call void @validateTarget(ptr noundef byval(%struct.Qureg) align 8 %0, i32 noundef %7, ptr noundef @__func__.applyProjector)
  %8 = load i32, ptr %5, align 4, !tbaa !4
  call void @validateOutcome(i32 noundef %8, ptr noundef @__func__.applyProjector)
  call void @llvm.lifetime.start.p0(i64 8, ptr %6) #7
  store double 1.000000e+00, ptr %6, align 8, !tbaa !25
  %9 = getelementptr inbounds nuw %struct.Qureg, ptr %0, i32 0, i32 0
  %10 = load i32, ptr %9, align 8, !tbaa !13
  %11 = icmp ne i32 %10, 0
  br i1 %11, label %12, label %16

12:                                               ; preds = %3
  %13 = load i32, ptr %4, align 4, !tbaa !4
  %14 = load i32, ptr %5, align 4, !tbaa !4
  %15 = load double, ptr %6, align 8, !tbaa !25
  call void @densmatr_collapseToKnownProbOutcome(ptr noundef byval(%struct.Qureg) align 8 %0, i32 noundef %13, i32 noundef %14, double noundef %15)
  br label %20

16:                                               ; preds = %3
  %17 = load i32, ptr %4, align 4, !tbaa !4
  %18 = load i32, ptr %5, align 4, !tbaa !4
  %19 = load double, ptr %6, align 8, !tbaa !25
  call void @statevec_collapseToKnownProbOutcome(ptr noundef byval(%struct.Qureg) align 8 %0, i32 noundef %17, i32 noundef %18, double noundef %19)
  br label %20

20:                                               ; preds = %16, %12
  %21 = load i32, ptr %4, align 4, !tbaa !4
  %22 = load i32, ptr %5, align 4, !tbaa !4
  call void (ptr, ptr, ...) @qasm_recordComment(ptr noundef byval(%struct.Qureg) align 8 %0, ptr noundef @.str.14, i32 noundef %21, i32 noundef %22)
  call void @llvm.lifetime.end.p0(i64 8, ptr %6) #7
  ret void
}