; Function Attrs: nounwind uwtable
define void @applyProjector(ptr noundef readonly byval(%struct.Qureg) align 8 captures(none) %0, i32 noundef %1, i32 noundef %2) local_unnamed_addr #0 {
  tail call void @validateTarget(ptr noundef nonnull byval(%struct.Qureg) align 8 %0, i32 noundef %1, ptr noundef nonnull @__func__.applyProjector) #17
  tail call void @validateOutcome(i32 noundef %2, ptr noundef nonnull @__func__.applyProjector) #17
  %4 = load i32, ptr %0, align 8, !tbaa !12
  %.not = icmp eq i32 %4, 0
  br i1 %.not, label %6, label %5

5:                                                ; preds = %3
  tail call void @densmatr_collapseToKnownProbOutcome(ptr noundef nonnull byval(%struct.Qureg) align 8 %0, i32 noundef %1, i32 noundef %2, double noundef 1.000000e+00) #17
  br label %7

6:                                                ; preds = %3
  tail call void @statevec_collapseToKnownProbOutcome(ptr noundef nonnull byval(%struct.Qureg) align 8 %0, i32 noundef %1, i32 noundef %2, double noundef 1.000000e+00) #17
  br label %7

7:                                                ; preds = %6, %5
  tail call void (ptr, ptr, ...) @qasm_recordComment(ptr noundef nonnull byval(%struct.Qureg) align 8 %0, ptr noundef nonnull @.str.14, i32 noundef %1, i32 noundef %2) #17
  ret void
}